Certificate:
    Data:
        Version: 3 (0x2)
        Serial Number: 4337 (0x10f1)
        Signature Algorithm: sha1WithRSAEncryption
        Issuer: C=US, ST=NY, L=New York, O=Bloomberg LP, OU=CTO Office, CN=Bloomberg LP CA/emailAddress=open-tech@bloomberg.net
        Validity
            Not Before: Feb 26 06:00:00 2015 GMT
            Not After : Mar  2 06:00:00 2015 GMT
        Subject: C=US, ST=NY, L=New York, O=Bloomberg LP, OU=CTO Office, CN=hackillinois_spring_2015_016/emailAddress=open-tech@bloomberg.net
        Subject Public Key Info:
            Public Key Algorithm: rsaEncryption
            RSA Public Key: (1024 bit)
                Modulus (1024 bit):
                    00:d1:b8:4a:1f:69:ed:f5:ca:6a:87:c5:ae:af:77:
                    a6:83:04:f7:d1:68:39:6c:cf:9b:6f:b1:5a:8d:ae:
                    7e:51:98:d8:60:e1:b4:28:46:8d:fb:5b:b9:4d:1d:
                    5b:26:1b:f5:f6:b6:8d:78:1a:a6:5c:64:14:06:20:
                    3a:67:59:85:90:8b:33:02:34:a5:c2:73:df:e0:b0:
                    5b:b4:b8:e4:e0:f0:76:15:f3:41:b6:a0:35:2d:13:
                    ff:06:d2:0f:33:f9:7d:d2:49:00:de:9d:f3:fe:ad:
                    f3:0e:6e:6d:59:44:7e:36:5a:6c:c5:73:8d:54:0f:
                    f1:83:fc:af:e2:04:67:51:65
                Exponent: 65537 (0x10001)
        X509v3 extensions:
            X509v3 Basic Constraints: 
                CA:FALSE
            Netscape Comment: 
                Easy-RSA Generated Certificate
            X509v3 Subject Key Identifier: 
                EF:0D:2B:E4:8F:69:6A:E2:9B:54:F0:5A:8C:3B:50:E8:98:1C:17:3A
            X509v3 Authority Key Identifier: 
                keyid:F3:21:76:1F:DA:B5:E7:03:FC:ED:D7:71:B8:1C:55:2D:7E:65:5F:14
                DirName:/C=US/ST=NY/L=New York/O=Bloomberg LP/OU=CTO Office/CN=Bloomberg LP CA/emailAddress=open-tech@bloomberg.net
                serial:81:F3:7A:1C:BC:C6:E8:A2

            X509v3 Extended Key Usage: 
                TLS Web Client Authentication
            X509v3 Key Usage: 
                Digital Signature
    Signature Algorithm: sha1WithRSAEncryption
        50:64:1c:32:15:a4:91:2a:fb:e6:00:d9:d0:3c:47:b0:b8:95:
        99:49:96:7f:3c:58:cd:24:54:43:05:c8:b3:cf:a9:e7:15:0a:
        8a:cb:68:f6:88:71:40:1a:64:b2:4e:6a:98:a4:4c:1a:aa:69:
        d1:ff:bb:bb:6f:ed:a3:b7:a1:1a:88:ff:1f:e4:82:ea:a5:6a:
        3f:5a:65:17:06:d0:ba:c0:2d:8d:b6:1f:12:85:f4:74:1d:e9:
        6a:14:65:94:e8:9b:d1:f7:61:f9:ab:b9:40:49:4b:0a:b5:95:
        e9:a5:86:f0:7d:01:4f:19:2f:fa:d9:18:8e:2f:e5:e5:f7:56:
        e3:78
-----BEGIN CERTIFICATE-----
MIIEEDCCA3mgAwIBAgICEPEwDQYJKoZIhvcNAQEFBQAwgZsxCzAJBgNVBAYTAlVT
MQswCQYDVQQIEwJOWTERMA8GA1UEBxMITmV3IFlvcmsxFTATBgNVBAoTDEJsb29t
YmVyZyBMUDETMBEGA1UECxMKQ1RPIE9mZmljZTEYMBYGA1UEAxMPQmxvb21iZXJn
IExQIENBMSYwJAYJKoZIhvcNAQkBFhdvcGVuLXRlY2hAYmxvb21iZXJnLm5ldDAe
Fw0xNTAyMjYwNjAwMDBaFw0xNTAzMDIwNjAwMDBaMIGoMQswCQYDVQQGEwJVUzEL
MAkGA1UECBMCTlkxETAPBgNVBAcTCE5ldyBZb3JrMRUwEwYDVQQKEwxCbG9vbWJl
cmcgTFAxEzARBgNVBAsTCkNUTyBPZmZpY2UxJTAjBgNVBAMUHGhhY2tpbGxpbm9p
c19zcHJpbmdfMjAxNV8wMTYxJjAkBgkqhkiG9w0BCQEWF29wZW4tdGVjaEBibG9v
bWJlcmcubmV0MIGfMA0GCSqGSIb3DQEBAQUAA4GNADCBiQKBgQDRuEofae31ymqH
xa6vd6aDBPfRaDlsz5tvsVqNrn5RmNhg4bQoRo37W7lNHVsmG/X2to14GqZcZBQG
IDpnWYWQizMCNKXCc9/gsFu0uOTg8HYV80G2oDUtE/8G0g8z+X3SSQDenfP+rfMO
bm1ZRH42WmzFc41UD/GD/K/iBGdRZQIDAQABo4IBUjCCAU4wCQYDVR0TBAIwADAt
BglghkgBhvhCAQ0EIBYeRWFzeS1SU0EgR2VuZXJhdGVkIENlcnRpZmljYXRlMB0G
A1UdDgQWBBTvDSvkj2lq4ptU8FqMO1DomBwXOjCB0AYDVR0jBIHIMIHFgBTzIXYf
2rXnA/zt13G4HFUtfmVfFKGBoaSBnjCBmzELMAkGA1UEBhMCVVMxCzAJBgNVBAgT
Ak5ZMREwDwYDVQQHEwhOZXcgWW9yazEVMBMGA1UEChMMQmxvb21iZXJnIExQMRMw
EQYDVQQLEwpDVE8gT2ZmaWNlMRgwFgYDVQQDEw9CbG9vbWJlcmcgTFAgQ0ExJjAk
BgkqhkiG9w0BCQEWF29wZW4tdGVjaEBibG9vbWJlcmcubmV0ggkAgfN6HLzG6KIw
EwYDVR0lBAwwCgYIKwYBBQUHAwIwCwYDVR0PBAQDAgeAMA0GCSqGSIb3DQEBBQUA
A4GBAFBkHDIVpJEq++YA2dA8R7C4lZlJln88WM0kVEMFyLPPqecVCorLaPaIcUAa
ZLJOapikTBqqadH/u7tv7aO3oRqI/x/kguqlaj9aZRcG0LrALY22HxKF9HQd6WoU
ZZTom9H3YfmruUBJSwq1lemlhvB9AU8ZL/rZGI4v5eX3VuN4
-----END CERTIFICATE-----
